; Function Attrs: nounwind sspstrong uwtable
define internal fastcc void @init_unix_addrinfo(ptr noundef nonnull %0, i64 noundef %1, i32 noundef %2) unnamed_addr #0 {
  %4 = alloca i64, align 8
  %5 = alloca %struct.sockaddr_un, align 2
  store i64 %1, ptr %4, align 8, !tbaa !35
  call void @llvm.lifetime.start.p0(i64 110, ptr nonnull %5) #21
  %6 = call i64 @rb_string_value(ptr noundef nonnull %4) #21
  %7 = load i64, ptr %4, align 8, !tbaa !35
  %8 = inttoptr i64 %7 to ptr
  %9 = getelementptr inbounds nuw i8, ptr %8, i64 16
  %10 = load i64, ptr %9, align 8, !tbaa !94
  %11 = icmp ugt i64 %10, 108
  br i1 %11, label %12, label %14

12:                                               ; preds = %3
  %13 = load i64, ptr @rb_eArgError, align 8, !tbaa !35
  call void (i64, ptr, ...) @rb_raise(i64 noundef %13, ptr noundef nonnull @.str.109, i64 noundef %10, i64 noundef 108) #23
  unreachable

14:                                               ; preds = %3
  %15 = getelementptr inbounds nuw i8, ptr %5, i64 2
  call void @llvm.memset.p0.i64(ptr noundef nonnull align 2 dereferenceable(110) %15, i8 noundef 0, i64 noundef 108, i1 noundef false) #21
  store i16 1, ptr %5, align 2, !tbaa !200
  %16 = getelementptr inbounds nuw i8, ptr %5, i64 2
  %17 = load i64, ptr %8, align 8, !tbaa !44, !noalias !218
  %18 = and i64 %17, 8192
  %.not.i.i = icmp eq i64 %18, 0
  %19 = getelementptr inbounds nuw i8, ptr %8, i64 24
  %.not.i = icmp eq i64 %10, 0
  br i1 %.not.i.i, label %RSTRING_PTR.exit, label %RSTRING_PTR.exit.thread

RSTRING_PTR.exit:                                 ; preds = %14
  br i1 %.not.i, label %init_addrinfo.exit, label %20

RSTRING_PTR.exit.thread:                          ; preds = %14
  br i1 %.not.i, label %init_addrinfo.exit, label %22

20:                                               ; preds = %RSTRING_PTR.exit
  %21 = call ptr @__memcpy_chk(ptr noundef nonnull %16, ptr noundef nonnull readonly %19, i64 noundef range(i64 1, 0) %10, i64 noundef 108) #21, !alias.scope !221
  br label %RSTRING_PTR.exit.i

22:                                               ; preds = %RSTRING_PTR.exit.thread
  %.sroa.2.0.copyload.i = load ptr, ptr %19, align 8
  %23 = call ptr @__memcpy_chk(ptr noundef nonnull %16, ptr noundef nonnull readonly %.sroa.2.0.copyload.i, i64 noundef range(i64 1, 0) %10, i64 noundef 108) #21, !alias.scope !221
  %.sroa.2.0.copyload.i.i = load ptr, ptr %19, align 8
  br label %RSTRING_PTR.exit.i

RSTRING_PTR.exit.i:                               ; preds = %20, %22
  %.sroa.2.0.i.i = phi ptr [ %.sroa.2.0.copyload.i.i, %22 ], [ %19, %20 ]
  %24 = load i8, ptr %.sroa.2.0.i.i, align 1, !tbaa !49
  %25 = icmp eq i8 %24, 0
  br i1 %25, label %rsock_unix_sockaddr_len.exit, label %init_addrinfo.exit

rsock_unix_sockaddr_len.exit:                     ; preds = %RSTRING_PTR.exit.i
  %26 = trunc nuw i64 %10 to i32
  %27 = add nuw nsw i32 %26, 2
  br label %init_addrinfo.exit

init_addrinfo.exit:                               ; preds = %rsock_unix_sockaddr_len.exit, %RSTRING_PTR.exit.thread, %RSTRING_PTR.exit, %RSTRING_PTR.exit.i
  %.0.i58 = phi i32 [ %27, %rsock_unix_sockaddr_len.exit ], [ 110, %RSTRING_PTR.exit.i ], [ 2, %RSTRING_PTR.exit ], [ 2, %RSTRING_PTR.exit.thread ]
  %28 = zext nneg i32 %.0.i58 to i64
  %29 = getelementptr inbounds nuw i8, ptr %0, i64 32
  call void @llvm.memcpy.p0.p0.i64(ptr noundef nonnull align 1 dereferenceable(1) %29, ptr noundef nonnull readonly align 2 dereferenceable(1) %5, i64 noundef range(i64 1, 0) %28, i1 noundef false) #21
  %30 = getelementptr inbounds nuw i8, ptr %0, i64 28
  store i32 %.0.i58, ptr %30, align 4, !tbaa !118
  %31 = getelementptr inbounds nuw i8, ptr %0, i64 16
  store i32 1, ptr %31, align 8, !tbaa !119
  %32 = getelementptr inbounds nuw i8, ptr %0, i64 20
  store i32 %2, ptr %32, align 4, !tbaa !120
  %33 = getelementptr inbounds nuw i8, ptr %0, i64 24
  store i32 0, ptr %33, align 8, !tbaa !121
  %34 = getelementptr inbounds nuw i8, ptr %0, i64 8
  store i64 4, ptr %34, align 8, !tbaa !111
  store i64 4, ptr %0, align 8, !tbaa !109
  call void @llvm.lifetime.end.p0(i64 110, ptr nonnull %5) #21
  ret void
}